target datalayout = "e-m:e-p270:32:32-p271:32:32-p272:64:64-i64:64-i128:128-f80:128-n8:16:32:64-S128"
target triple = "x86_64-pc-linux-gnu"

%struct.OSQPMatrix_ = type { ptr, i32 }

; Function Attrs: nounwind uwtable
define ptr @OSQPMatrix_new_from_csc(ptr noundef %0, i64 noundef %1) #0 {
  %3 = alloca ptr, align 8
  %4 = alloca ptr, align 8
  %5 = alloca i64, align 8
  %6 = alloca ptr, align 8
  store ptr %0, ptr %4, align 8
  store i64 %1, ptr %5, align 8
  %7 = call noalias ptr @malloc(i64 noundef 16) #4
  store ptr %7, ptr %6, align 8
  %8 = load ptr, ptr %6, align 8
  %9 = icmp ne ptr %8, null
  br i1 %9, label %11, label %10

10:                                               ; preds = %2
  store ptr null, ptr %3, align 8
  br label %33

11:                                               ; preds = %2
  %12 = load i64, ptr %5, align 8
  %13 = icmp ne i64 %12, 0
  br i1 %13, label %14, label %17

14:                                               ; preds = %11
  %15 = load ptr, ptr %6, align 8
  %16 = getelementptr inbounds %struct.OSQPMatrix_, ptr %15, i32 0, i32 1
  store i32 1, ptr %16, align 8
  br label %20

17:                                               ; preds = %11
  %18 = load ptr, ptr %6, align 8
  %19 = getelementptr inbounds %struct.OSQPMatrix_, ptr %18, i32 0, i32 1
  store i32 0, ptr %19, align 8
  br label %20

20:                                               ; preds = %17, %14
  %21 = load ptr, ptr %4, align 8
  %22 = call ptr @csc_copy(ptr noundef %21)
  %23 = load ptr, ptr %6, align 8
  %24 = getelementptr inbounds %struct.OSQPMatrix_, ptr %23, i32 0, i32 0
  store ptr %22, ptr %24, align 8
  %25 = load ptr, ptr %6, align 8
  %26 = getelementptr inbounds %struct.OSQPMatrix_, ptr %25, i32 0, i32 0
  %27 = load ptr, ptr %26, align 8
  %28 = icmp ne ptr %27, null
  br i1 %28, label %31, label %29

29:                                               ; preds = %20
  %30 = load ptr, ptr %6, align 8
  call void @free(ptr noundef %30) #5
  store ptr null, ptr %3, align 8
  br label %33

31:                                               ; preds = %20
  %32 = load ptr, ptr %6, align 8
  store ptr %32, ptr %3, align 8
  br label %33

33:                                               ; preds = %31, %29, %10
  %34 = load ptr, ptr %3, align 8
  ret ptr %34
}