; Function Attrs: nounwind uwtable
define noalias noundef ptr @OSQPMatrix_new_from_csc(ptr noundef %0, i64 noundef %1) local_unnamed_addr #0 {
  %3 = tail call noalias dereferenceable_or_null(16) ptr @malloc(i64 noundef 16) #8
  %.not = icmp eq ptr %3, null
  br i1 %.not, label %8, label %4

4:                                                ; preds = %2
  %.not10 = icmp ne i64 %1, 0
  %spec.select = zext i1 %.not10 to i32
  %5 = getelementptr inbounds i8, ptr %3, i64 8
  store i32 %spec.select, ptr %5, align 8
  %6 = tail call ptr @csc_copy(ptr noundef %0) #7
  store ptr %6, ptr %3, align 8
  %.not11 = icmp eq ptr %6, null
  br i1 %.not11, label %7, label %8

7:                                                ; preds = %4
  tail call void @free(ptr noundef nonnull %3) #7
  br label %8

8:                                                ; preds = %4, %2, %7
  %.0 = phi ptr [ null, %7 ], [ null, %2 ], [ %3, %4 ]
  ret ptr %.0
}